ccopy_reg
_reconstructor
p1
(cpsychopy.data
ExperimentHandler
p2
c__builtin__
object
p3
NtRp4
(dp5
S'originPath'
p6
NsS'dataFileName'
p7
Vdata/1_Intentional_Skeletons_2018_Dec_17_1558
p8
sS'runtimeInfo'
p9
NsS'name'
p10
S'Intentional_Skeletons'
p11
sS'dataNames'
p12
(lp13
S'Onset Prime'
p14
aS'Jitter'
p15
aS'Onset movie'
p16
aS'Onset Response text'
p17
aS'Response'
p18
aS'Response RT'
p19
aS'Movie: actor'
p20
aS'Movie: item'
p21
aS'CTX'
p22
asS'autoLog'
p23
I01
sS'extraInfo'
p24
(dp25
S'date'
p26
V2018_Dec_17_1558
p27
sS'frameRate'
p28
NsS'participant'
p29
V1
ssS'loopsUnfinished'
p30
(lp31
sS'saveWideText'
p32
I00
sS'thisEntry'
p33
(dp34
sS'version'
p35
S''
sS'_paramNamesSoFar'
p36
(lp37
sS'entries'
p38
(lp39
(dp40
g17
F9.3393570159096271
sg20
S'10'
p41
sg14
F2.7916568797081709e-05
sg15
F0.12662386719705043
sg28
Nsg22
S'0'
sg19
F0.96996465267147869
sg21
S'21'
p42
sg16
F1.5173998185782693
sg26
g27
sg29
V1
sg18
S'3'
sa(dp43
g17
F7.6861127418815158
sg20
S'20'
p44
sg14
F3.0379800591617823e-05
sg15
F0.46950720344748942
sg28
Nsg22
S'0'
sg19
F0.9239183358149603
sg21
S'25'
p45
sg16
F1.513870426104404
sg26
g27
sg29
V1
sg18
S'2'
sa(dp46
g17
F7.1125246835872531
sg20
S'35'
p47
sg14
F3.6537880077958107e-05
sg15
F0.78722688317100464
sg28
Nsg22
S'0'
sg19
F2.6733474831562489
sg21
S'11'
p48
sg16
F1.507169219548814
sg26
g27
sg29
V1
sg18
S'3'
sa(dp49
g17
F7.6854981669457629
sg20
S'31'
p50
sg14
F3.3664051443338394e-05
sg15
F0.28275624411129519
sg28
Nsg22
S'0'
sg19
F0.75012582982890308
sg21
S'14'
p51
sg16
F1.5032042465754785
sg26
g27
sg29
V1
sg18
S'2'
sa(dp52
g17
F8.2166399133275263
sg20
S'31'
p53
sg14
F3.2432493753731251e-05
sg15
F0.68966680363558286
sg28
Nsg22
S'0'
sg19
F0.72996391373453662
sg21
S'4'
sg16
F1.5126334761152975
sg26
g27
sg29
V1
sg18
S'1'
sa(dp54
g17
F6.9289466013433412
sg20
S'19'
p55
sg14
F3.6127283237874508e-05
sg15
F0.42759626928342731
sg28
Nsg22
S'0'
sg19
F0.41333056904841214
sg21
S'15'
p56
sg16
F1.5227113550645299
sg26
g27
sg29
V1
sg18
S'1'
sa(dp57
g17
F8.5252049609553069
sg20
S'24'
p58
sg14
F5.1727751269936562e-05
sg15
F0.28768512761007586
sg28
Nsg22
S'0'
sg19
F1.4171637593535706
sg21
S'4'
sg16
F1.5293752027209848
sg26
g27
sg29
V1
sg18
S'3'
sa(dp59
g17
F6.9962526120943949
sg20
S'13'
p60
sg14
F3.3253571018576622e-05
sg15
F0.9895448755036842
sg28
Nsg22
S'1'
sg19
F0.44184035825310275
sg21
S'29'
p61
sg16
F1.5026106091099791
sg26
g27
sg29
V1
sg18
S'1'
sa(dp62
g17
F7.7567966565839015
sg20
S'37'
p63
sg14
F3.3664109650999308e-05
sg15
F0.95618859449187188
sg28
Nsg22
S'1'
sg19
F1.5959385507158004
sg21
S'30'
p64
sg16
F1.5073289186693728
sg26
g27
sg29
V1
sg18
S'2'
sa(dp65
g17
F7.5060825262917206
sg20
S'41'
p66
sg14
F4.5159133151173592e-05
sg15
F0.97873651608483991
sg28
Nsg22
S'1'
sg19
F0.77515631221467629
sg21
S'26'
p67
sg16
F1.5100766473915428
sg26
g27
sg29
V1
sg18
S'1'
sa(dp68
g17
F9.9985122114303522
sg20
S'13'
p69
sg14
F3.6948360502719879e-05
sg15
F0.13745797068569882
sg28
Nsg22
S'1'
sg19
F0.40487390337511897
sg21
S'13'
p70
sg16
F1.5167224313481711
sg26
g27
sg29
V1
sg18
S'1'
sa(dp71
g17
F7.0906200350727886
sg20
S'30'
p72
sg14
F3.3253571018576622e-05
sg15
F0.25807655032656096
sg28
Nsg22
S'0'
sg19
F0.78415160335134715
sg21
S'10'
p73
sg16
F1.5039879630785435
sg26
g27
sg29
V1
sg18
S'1'
sa(dp74
g17
F10.100752105063293
sg20
S'39'
p75
sg14
F3.9822189137339592e-05
sg15
F0.93946306584622663
sg28
Nsg22
S'0'
sg19
F0.30627835274208337
sg21
S'13'
p76
sg16
F1.5010546713019721
sg26
g27
sg29
V1
sg18
S'2'
sa(dp77
g17
F6.9752195350010879
sg20
S'36'
p78
sg14
F4.5569671783596277e-05
sg15
F0.31573792713593618
sg28
Nsg22
S'0'
sg19
F0.35759925778256729
sg21
S'3'
sg16
F1.5094579670694657
sg26
g27
sg29
V1
sg18
S'3'
sa(dp79
g17
F9.7452699901186861
sg20
S'37'
p80
sg14
F5.4190983064472675e-05
sg15
F0.38577761816648259
sg28
Nsg22
S'1'
sg19
F0.35001128981821239
sg21
S'29'
p81
sg16
F1.5129976230091415
sg26
g27
sg29
V1
sg18
S'1'
sa(dp82
g17
F9.3858015543082729
sg20
S'11'
p83
sg14
F3.6948360502719879e-05
sg15
F0.93072049786220923
sg28
Nsg22
S'0'
sg19
F1.0786101657431573
sg21
S'31'
p84
sg16
F1.5046817717375234
sg26
g27
sg29
V1
sg18
S'3'
sa(dp85
g17
F10.028911705652718
sg20
S'21'
p86
sg14
F3.6127283237874508e-05
sg15
F0.26192177945575407
sg28
Nsg22
S'1'
sg19
F0.31621541734784842
sg21
S'9'
sg16
F1.5062910793931223
sg26
g27
sg29
V1
sg18
S'1'
sa(dp87
g17
F7.2595710702007636
sg20
S'35'
p88
sg14
F3.9822130929678679e-05
sg15
F0.69553277790861534
sg28
Nsg22
S'0'
sg19
F0.31687186716590077
sg21
S'20'
p89
sg16
F1.510727760149166
sg26
g27
sg29
V1
sg18
S'3'
sa(dp90
g17
F12.009229708113708
sg20
S'39'
p91
sg14
F4.8443442210555077e-05
sg15
F0.11718686409312923
sg28
Nsg22
S'0'
sg19
F0.28694572282256559
sg21
S'12'
p92
sg16
F1.5121404202654958
sg26
g27
sg29
V1
sg18
S'3'
sa(dp93
g17
F10.394518090353813
sg20
S'24'
p94
sg14
F4.0232727769762278e-05
sg15
F0.29397146126602736
sg28
Nsg22
S'0'
sg19
F0.33347360033076257
sg21
S'13'
p95
sg16
F1.5194024213706143
sg26
g27
sg29
V1
sg18
S'1'
sa(dp96
g17
F8.8078092477517202
sg20
S'26'
p97
sg14
F5.2959367167204618e-05
sg15
F0.89229396779003156
sg28
Nsg22
S'1'
sg19
F0.30107766145374626
sg21
S'30'
p98
sg16
F1.5101341226836666
sg26
g27
sg29
V1
sg18
S'1'
sa(dp99
g17
F10.988718013977632
sg20
S'36'
p100
sg14
F4.2285362724214792e-05
sg15
F0.70170673624189039
sg28
Nsg22
S'0'
sg19
F1.7395314944442362
sg21
S'15'
p101
sg16
F1.519685692328494
sg26
g27
sg29
V1
sg18
S'2'
sa(dp102
g17
F6.7615933788474649
sg20
S'28'
p103
sg14
F4.7622423153370619e-05
sg15
F0.23579448908342279
sg28
Nsg22
S'1'
sg19
F0.31674336874857545
sg21
S'1'
sg16
F1.5361872544744983
sg26
g27
sg29
V1
sg18
S'2'
sa(dp104
g17
F8.2023014742298983
sg20
S'13'
p105
sg14
F3.5716802813112736e-05
sg15
F0.71506186060608923
sg28
Nsg22
S'1'
sg19
F0.36147144914139062
sg21
S'17'
p106
sg16
F1.5048656925791875
sg26
g27
sg29
V1
sg18
S'1'
sa(dp107
g17
F7.9662357389461249
sg20
S'21'
p108
sg14
F4.0232727769762278e-05
sg15
F0.78602123889494613
sg28
Nsg22
S'1'
sg19
F1.5665005357586779
sg21
S'1'
sg16
F1.5006999667966738
sg26
g27
sg29
V1
sg18
S'3'
sa(dp109
g17
F6.1703267469420098
sg20
S'29'
p110
sg14
F3.8590515032410622e-05
sg15
F0.56149653988162485
sg28
Nsg22
S'0'
sg19
F1.0833301174570806
sg21
S'23'
p111
sg16
F1.5040121847414412
sg26
g27
sg29
V1
sg18
S'3'
sa(dp112
g17
F10.337434878514614
sg20
S'37'
p113
sg14
F3.4895725548267365e-05
sg15
F0.28719582157917267
sg28
Nsg22
S'1'
sg19
F0.36677805916406214
sg21
S'11'
p114
sg16
F1.5055365111911669
sg26
g27
sg29
V1
sg18
S'1'
sa(dp115
g17
F8.0837558450293727
sg20
S'34'
p116
sg14
F4.0232669562101364e-05
sg15
F0.41886635026738794
sg28
Nsg22
S'1'
sg19
F0.35023585392627865
sg21
S'24'
p117
sg16
F1.5026340097538196
sg26
g27
sg29
V1
sg18
S'1'
sa(dp118
g17
F7.4258876850944944
sg20
S'22'
p119
sg14
F5.8296369388699532e-05
sg15
F0.21197228308015165
sg28
Nsg22
S'0'
sg19
F0.332943185698241
sg21
S'30'
p120
sg16
F1.5089378159027547
sg26
g27
sg29
V1
sg18
S'2'
sa(dp121
g17
F9.4706449136137962
sg20
S'5'
sg14
F3.5306205973029137e-05
sg15
F0.8184227889281166
sg28
Nsg22
S'0'
sg19
F0.51684312947327271
sg21
S'28'
p122
sg16
F1.5052745881257579
sg26
g27
sg29
V1
sg18
S'1'
sa(dp123
g17
F6.6521670231595635
sg20
S'30'
p124
sg14
F6.7328161094337702e-05
sg15
F0.86848007602886301
sg28
Nsg22
S'0'
sg19
F0.43920306424843147
sg21
S'17'
p125
sg16
F1.5086697347578593
sg26
g27
sg29
V1
sg18
S'1'
sa(dp126
g17
F7.1562128720106557
sg20
S'32'
p127
sg14
F5.378044443204999e-05
sg15
F0.88245154722378194
sg28
Nsg22
S'1'
sg19
F0.43185608187923208
sg21
S'16'
p128
sg16
F1.5213138848193921
sg26
g27
sg29
V1
sg18
S'1'
sa(dp129
g17
F9.8268651753314771
sg20
S'11'
p130
sg14
F3.5716802813112736e-05
sg15
F0.25132613980347368
sg28
Nsg22
S'0'
sg19
F0.46714590099873021
sg21
S'9'
sg16
F1.5338558109360747
sg26
g27
sg29
V1
sg18
S'1'
sa(dp131
g17
F9.9057081158971414
sg20
S'22'
p132
sg14
F4.7622364945709705e-05
sg15
F0.32993015311234131
sg28
Nsg22
S'0'
sg19
F1.5219760821200907
sg21
S'8'
sg16
F1.5109367238474078
sg26
g27
sg29
V1
sg18
S'2'
sa(dp133
g17
F6.4215663654613309
sg20
S'16'
p134
sg14
F6.4454390667378902e-05
sg15
F0.14783663554050996
sg28
Nsg22
S'0'
sg19
F0.31982281192904338
sg21
S'19'
p135
sg16
F1.5250029763556086
sg26
g27
sg29
V1
sg18
S'3'
sa(dp136
g17
F9.6278648345614783
sg20
S'33'
p137
sg14
F3.7358899135142565e-05
sg15
F0.60610925706665453
sg28
Nsg22
S'1'
sg19
F0.31898203078890219
sg21
S'5'
sg16
F1.528800860454794
sg26
g27
sg29
V1
sg18
S'3'
sa(dp138
g17
F8.1187751197721809
sg20
S'24'
p139
sg14
F3.8180034607648849e-05
sg15
F0.44211210809641255
sg28
Nsg22
S'0'
sg19
F0.27783014409942552
sg21
S'5'
sg16
F1.5290200876188464
sg26
g27
sg29
V1
sg18
S'2'
sa(dp140
g17
F8.3969607895123772
sg20
S'40'
p141
sg14
F6.0759542975574732e-05
sg15
F0.57397000359075812
sg28
Nsg22
S'1'
sg19
F0.34413403237704188
sg21
S'8'
sg16
F1.5087169465841725
sg26
g27
sg29
V1
sg18
S'3'
sa(dp142
g17
F8.5936851094011217
sg20
S'33'
p143
sg14
F3.3253571018576622e-05
sg15
F0.85760689653399202
sg28
Nsg22
S'1'
sg19
F0.31671011523576453
sg21
S'3'
sg16
F1.5053608010639437
sg26
g27
sg29
V1
sg18
S'1'
sa(dp144
g17
F6.5104855429381132
sg20
S'30'
p145
sg14
F3.5716802813112736e-05
sg15
F0.72933243019760075
sg28
Nsg22
S'0'
sg19
F0.4159892110619694
sg21
S'9'
sg16
F1.5033241236233152
sg26
g27
sg29
V1
sg18
S'2'
sa(dp146
g17
F8.0900978310965002
sg20
S'26'
p147
sg14
F4.1053746826946735e-05
sg15
F0.86719699735838773
sg28
Nsg22
S'1'
sg19
F0.65336866700090468
sg21
S'25'
p148
sg16
F1.5112754174042493
sg26
g27
sg29
V1
sg18
S'1'
sa(dp149
g17
F8.5043459518929012
sg20
S'26'
p150
sg14
F4.3106498196721077e-05
sg15
F0.5434739213472729
sg28
Nsg22
S'1'
sg19
F1.5088766457047313
sg21
S'4'
sg16
F1.5144299889798276
sg26
g27
sg29
V1
sg18
S'2'
sa(dp151
g17
F6.9797781454399228
sg20
S'33'
p152
sg14
F3.7358957342803478e-05
sg15
F0.76262096188640094
sg28
Nsg22
S'1'
sg19
F1.7699100511963479
sg21
S'9'
sg16
F1.5006543970666826
sg26
g27
sg29
V1
sg18
S'1'
sa(dp153
g17
F7.8892073748866096
sg20
S'20'
p154
sg14
F5.1727751269936562e-05
sg15
F0.90408537059325766
sg28
Nsg22
S'0'
sg19
F0.49645911250263453
sg21
S'21'
p155
sg16
F1.5181630080915056
sg26
g27
sg29
V1
sg18
S'3'
sa(dp156
g17
F10.702214029734023
sg20
S'3'
sg14
F4.064320819452405e-05
sg15
F0.6178934423645126
sg28
Nsg22
S'1'
sg19
F0.31793885445222259
sg21
S'18'
p157
sg16
F1.5212954105809331
sg26
g27
sg29
V1
sg18
S'1'
sa(dp158
g17
F6.6749383167480119
sg20
S'39'
p159
sg14
F5.378044443204999e-05
sg15
F0.35528074489318573
sg28
Nsg22
S'0'
sg19
F2.3013313736300915
sg21
S'16'
p160
sg16
F1.5183879827382043
sg26
g27
sg29
V1
sg18
S'2'
sa(dp161
g17
F11.97832976852078
sg20
S'39'
p162
sg14
F4.1874824091792107e-05
sg15
F0.20341131063735066
sg28
Nsg22
S'0'
sg19
F0.40497366402996704
sg21
S'10'
p163
sg16
F1.5131794912158512
sg26
g27
sg29
V1
sg18
S'3'
sa(dp164
g17
F7.1423954052734189
sg20
S'14'
p165
sg14
F4.3517036829143763e-05
sg15
F0.54702437316743857
sg28
Nsg22
S'0'
sg19
F0.016878846217878163
sg21
S'29'
p166
sg16
F1.5165590373799205
sg26
g27
sg29
V1
sg18
S'3'
sa(dp167
g17
F7.4754165931371972
sg20
S'35'
p168
sg14
F4.6801287680864334e-05
sg15
F0.98035804010578531
sg28
Nsg22
S'0'
sg19
F0.30985290434909984
sg21
S'9'
sg16
F1.5087781167239882
sg26
g27
sg29
V1
sg18
S'1'
sa(dp169
g17
F8.2655115504749119
sg20
S'34'
p170
sg14
F3.4074648283421993e-05
sg15
F0.49708776257228027
sg28
Nsg22
S'1'
sg19
F0.38833539286861196
sg21
S'31'
p171
sg16
F1.5169042995548807
sg26
g27
sg29
V1
sg18
S'2'
sa(dp172
g17
F7.2120726815774105
sg20
S'11'
p173
sg14
F6.2812294345349073e-05
sg15
F0.38574048592364274
sg28
Nsg22
S'0'
sg19
F0.55118378542829305
sg21
S'4'
sg16
F1.5259738980093971
sg26
g27
sg29
V1
sg18
S'2'
sa(dp174
g17
F7.6254007873940282
sg20
S'13'
p175
sg14
F3.407459007576108e-05
sg15
F0.30495291571528094
sg28
Nsg22
S'1'
sg19
F0.28580648079514503
sg21
S'5'
sg16
F1.5126072016428225
sg26
g27
sg29
V1
sg18
S'3'
sa(dp176
g17
F6.5766264476696961
sg20
S'17'
p177
sg14
F3.2021955121308565e-05
sg15
F0.3235573057741733
sg28
Nsg22
S'1'
sg19
F0.076087001187261194
sg21
S'14'
p178
sg16
F1.5093939232174307
sg26
g27
sg29
V1
sg18
S'2'
sa(dp179
g17
F6.4928857925115153
sg20
S'20'
p180
sg14
F3.5716744605451822e-05
sg15
F0.99017655332576249
sg28
Nsg22
S'0'
sg19
F0.4369561915518716
sg21
S'16'
p181
sg16
F1.5100737736211158
sg26
g27
sg29
V1
sg18
S'1'
sa(dp182
g17
F7.7255682867835276
sg20
S'31'
p183
sg14
F4.6390749048441648e-05
sg15
F0.64905190155234682
sg28
Nsg22
S'0'
sg19
F0.29059581336332485
sg21
S'8'
sg16
F1.5143269439577125
sg26
g27
sg29
V1
sg18
S'2'
sa(dp184
g17
F6.9934383762301877
sg20
S'19'
p185
sg14
F3.3664109650999308e-05
sg15
F0.54531770112574396
sg28
Nsg22
S'0'
sg19
F1.4933841852471232
sg21
S'23'
p186
sg16
F1.5044793766574003
sg26
g27
sg29
V1
sg18
S'3'
sa(dp187
g17
F8.0596355246379972
sg20
S'24'
p188
sg14
F3.5306205973029137e-05
sg15
F0.69727310983826563
sg28
Nsg22
S'0'
sg19
F0.31677826453233138
sg21
S'11'
p189
sg16
F1.5303145129000768
sg26
g27
sg29
V1
sg18
S'1'
sa(dp190
g17
F8.7747162158484571
sg20
S'12'
p191
sg14
F3.6948418710380793e-05
sg15
F0.63839845992859434
sg28
Nsg22
S'1'
sg19
F0.69480095076141879
sg21
S'5'
sg16
F1.5022407146752812
sg26
g27
sg29
V1
sg18
S'1'
sa(dp192
g17
F8.5828444514190778
sg20
S'11'
p193
sg14
F3.9822189137339592e-05
sg15
F0.75772983696955609
sg28
Nsg22
S'0'
sg19
F0.5225606876774691
sg21
S'22'
p194
sg16
F1.500780432135798
sg26
g27
sg29
V1
sg18
S'1'
sa(dp195
g17
F9.9967542890808545
sg20
S'33'
p196
sg14
F5.5833137594163418e-05
sg15
F0.30297944423303669
sg28
Nsg22
S'1'
sg19
F0.4528361996053718
sg21
S'26'
p197
sg16
F1.5041620309930295
sg26
g27
sg29
V1
sg18
S'1'
sa(dp198
g17
F7.75219535024371
sg20
S'13'
p199
sg14
F3.9001053664833307e-05
sg15
F0.76071837094216743
sg28
Nsg22
S'1'
sg19
F0.29099239275092259
sg21
S'30'
p200
sg16
F1.5108706272440031
sg26
g27
sg29
V1
sg18
S'3'
sa(dp201
g17
F8.8511817327234894
sg20
S'3'
sg14
F3.7769495975226164e-05
sg15
F0.75209541409899627
sg28
Nsg22
S'1'
sg19
F0.30178050190443173
sg21
S'28'
p202
sg16
F1.501815808180254
sg26
g27
sg29
V1
sg18
S'1'
sa(dp203
g17
F9.7114667280111462
sg20
S'9'
sg14
F3.2432493753731251e-05
sg15
F0.13409964854940476
sg28
Nsg22
S'1'
sg19
F0.47460988652892411
sg21
S'6'
sg16
F1.5039789312286302
sg26
g27
sg29
V1
sg18
S'1'
sa(dp204
g17
F7.2382982391864061
sg20
S'18'
p205
sg14
F3.2021955121308565e-05
sg15
F0.86056889207783127
sg28
Nsg22
S'1'
sg19
F0.36861110996687785
sg21
S'16'
p206
sg16
F1.5331291592447087
sg26
g27
sg29
V1
sg18
S'1'
sa(dp207
g17
F13.575750770745799
sg20
S'3'
sg14
F4.0232669562101364e-05
sg15
F0.88760502876903091
sg28
Nsg22
S'1'
sg19
F0.41695027984678745
sg21
S'12'
p208
sg16
F1.5207387214759365
sg26
g27
sg29
V1
sg18
S'3'
sa(dp209
g17
F8.489813739026431
sg20
S'13'
p210
sg14
F4.9675058107823133e-05
sg15
F0.31910279266136166
sg28
Nsg22
S'1'
sg19
F0.46496471430873498
sg21
S'14'
p211
sg16
F1.5139685446047224
sg26
g27
sg29
V1
sg18
S'2'
sa(dp212
g17
F10.051429697487038
sg20
S'15'
p213
sg14
F4.7622423153370619e-05
sg15
F0.7224200515951974
sg28
Nsg22
S'1'
sg19
F0.50971126882359385
sg21
S'29'
p214
sg16
F1.5192357430933043
sg26
g27
sg29
V1
sg18
S'1'
sa(dp215
g17
F6.975758571003098
sg20
S'12'
p216
sg14
F3.9822189137339592e-05
sg15
F0.54617902889036607
sg28
Nsg22
S'1'
sg19
F0.31267699302406982
sg21
S'19'
p217
sg16
F1.511064401071053
sg26
g27
sg29
V1
sg18
S'3'
sa(dp218
g17
F10.487703985883854
sg20
S'10'
p219
sg14
F4.0232669562101364e-05
sg15
F0.88763037082040908
sg28
Nsg22
S'0'
sg19
F0.02998444065451622
sg21
S'31'
p220
sg16
F1.5047839955659583
sg26
g27
sg29
V1
sg18
S'3'
sa(dp221
g17
F7.8839914936688729
sg20
S'27'
p222
sg14
F4.6801287680864334e-05
sg15
F0.60339718454491009
sg28
Nsg22
S'0'
sg19
F0.34506554232211784
sg21
S'10'
p223
sg16
F1.5034008941729553
sg26
g27
sg29
V1
sg18
S'2'
sa(dp224
g17
F7.9985549073317088
sg20
S'4'
sg14
F6.0759542975574732e-05
sg15
F0.73832305603935922
sg28
Nsg22
S'0'
sg19
F0.29118329274933785
sg21
S'18'
p225
sg16
F1.5162749452865683
sg26
g27
sg29
V1
sg18
S'1'
sa(dp226
g17
F6.2921316347783431
sg20
S'23'
p227
sg14
F4.6390749048441648e-05
sg15
F0.62173598238543837
sg28
Nsg22
S'0'
sg19
F0.30940254451707006
sg21
S'28'
p228
sg16
F1.5170262292376719
sg26
g27
sg29
V1
sg18
S'2'
sa(dp229
g17
F7.2112885546521284
sg20
S'4'
sg14
F4.6390749048441648e-05
sg15
F0.2301109275808535
sg28
Nsg22
S'0'
sg19
F0.4357143149827607
sg21
S'9'
sg16
F1.5353119881474413
sg26
g27
sg29
V1
sg18
S'2'
sa(dp230
g17
F6.2794226197875105
sg20
S'18'
p231
sg14
F5.9527927078306675e-05
sg15
F0.3782464099629167
sg28
Nsg22
S'1'
sg19
F1.880516292178072
sg21
S'1'
sg16
F1.5107548556406982
sg26
g27
sg29
V1
sg18
S'2'
sa(dp232
g17
F7.7883058341685683
sg20
S'13'
p233
sg14
F3.9822189137339592e-05
sg15
F0.97044201090321114
sg28
Nsg22
S'1'
sg19
F0.50122586544603109
sg21
S'23'
p234
sg16
F1.5112253318075091
sg26
g27
sg29
V1
sg18
S'1'
sa(dp235
g17
F7.5193896946730092
sg20
S'17'
p236
sg14
F3.9411592297255993e-05
sg15
F0.51028904673276998
sg28
Nsg22
S'1'
sg19
F0.6384669701801613
sg21
S'12'
p237
sg16
F1.5045425994321704
sg26
g27
sg29
V1
sg18
S'3'
sa(dp238
g17
F9.2053447901271284
sg20
S'34'
p239
sg14
F3.2843032386153936e-05
sg15
F0.77979474586818631
sg28
Nsg22
S'1'
sg19
F1.2588805457926355
sg21
S'11'
p240
sg16
F1.5194578439695761
sg26
g27
sg29
V1
sg18
S'2'
sa(dp241
g17
F8.6799193703918718
sg20
S'13'
p242
sg14
F3.2432493753731251e-05
sg15
F0.28115740232441555
sg28
Nsg22
S'1'
sg19
F0.90498762228526175
sg21
S'28'
p243
sg16
F1.515088080894202
sg26
g27
sg29
V1
sg18
S'3'
sa(dp244
g17
F7.8152855494990945
sg20
S'32'
p245
sg14
F3.5716802813112736e-05
sg15
F0.37552030346195442
sg28
Nsg22
S'1'
sg19
F0.40233636990888044
sg21
S'17'
p246
sg16
F1.5186322527006269
sg26
g27
sg29
V1
sg18
S'2'
sa(dp247
g17
F7.4134635832160711
sg20
S'35'
p248
sg14
F3.5306205973029137e-05
sg15
F0.24396674787143269
sg28
Nsg22
S'1'
sg19
F0.097741632256656885
sg21
S'28'
p249
sg16
F1.50417229445884
sg26
g27
sg29
V1
sg18
S'2'
sa(dp250
g17
F8.7931579789728858
sg20
S'10'
p251
sg14
F3.407459007576108e-05
sg15
F0.40973099415418768
sg28
Nsg22
S'0'
sg19
F0.31673597916960716
sg21
S'20'
p252
sg16
F1.5147526715300046
sg26
g27
sg29
V1
sg18
S'1'
sa(dp253
g17
F9.6633747018640861
sg20
S'25'
p254
sg14
F5.2959367167204618e-05
sg15
F0.26546275611277781
sg28
Nsg22
S'1'
sg19
F0.35329846496460959
sg21
S'19'
p255
sg16
F1.5126901302719489
sg26
g27
sg29
V1
sg18
S'1'
sa(dp256
g17
F7.6140243777190335
sg20
S'32'
p257
sg14
F3.3253571018576622e-05
sg15
F0.77971404945985046
sg28
Nsg22
S'1'
sg19
F1.1375506501062773
sg21
S'14'
p258
sg16
F1.5326262505841441
sg26
g27
sg29
V1
sg18
S'3'
sa(dp259
g17
F6.2448200408252887
sg20
S'13'
p260
sg14
F3.3664109650999308e-05
sg15
F0.58441174535151641
sg28
Nsg22
S'1'
sg19
F0.51290566253010184
sg21
S'24'
p261
sg16
F1.5076150634558871
sg26
g27
sg29
V1
sg18
S'2'
sa(dp262
g17
F7.5614603646681644
sg20
S'19'
p263
sg14
F4.0232669562101364e-05
sg15
F0.85922800056606807
sg28
Nsg22
S'0'
sg19
F0.34384008729830384
sg21
S'10'
p264
sg16
F1.5034554956364445
sg26
g27
sg29
V1
sg18
S'3'
sa(dp265
g17
F8.1778831034898758
sg20
S'5'
sg14
F3.3664051443338394e-05
sg15
F0.27887035543249272
sg28
Nsg22
S'0'
sg19
F0.32580968295224011
sg21
S'16'
p266
sg16
F1.5047922063386068
sg26
g27
sg29
V1
sg18
S'1'
sa(dp267
g17
F10.266030880680773
sg20
S'5'
sg14
F4.8853980842977762e-05
sg15
F0.61494207372842291
sg28
Nsg22
S'0'
sg19
F0.32479934964794666
sg21
S'13'
p268
sg16
F1.50599590287311
sg26
g27
sg29
V1
sg18
S'1'
sa(dp269
g17
F7.7720801533432677
sg20
S'4'
sg14
F3.407459007576108e-05
sg15
F0.49427388848511222
sg28
Nsg22
S'0'
sg19
F1.7124803455662914
sg21
S'4'
sg16
F1.5270404748735018
sg26
g27
sg29
V1
sg18
S'3'
sa(dp270
g17
F7.9905555806471966
sg20
S'37'
p271
sg14
F3.2021955121308565e-05
sg15
F0.52755801038860162
sg28
Nsg22
S'1'
sg19
F0.8874769585672766
sg21
S'1'
sg16
F1.5280586084118113
sg26
g27
sg29
V1
sg18
S'2'
sa(dp272
g17
F7.769085691543296
sg20
S'27'
p273
sg14
F5.7885830756276846e-05
sg15
F0.29120620388310864
sg28
Nsg22
S'0'
sg19
F1.1430034115328453
sg21
S'20'
p274
sg16
F1.5151882520876825
sg26
g27
sg29
V1
sg18
S'2'
sa(dp275
g17
F7.2622559866285883
sg20
S'39'
p276
sg14
F3.6948360502719879e-05
sg15
F0.84033353668182875
sg28
Nsg22
S'0'
sg19
F0.4575795519631356
sg21
S'30'
p277
sg16
F1.5086106173112057
sg26
g27
sg29
V1
sg18
S'2'
sa(dp278
g17
F10.150306055846158
sg20
S'41'
p279
sg14
F4.3106439989060163e-05
sg15
F0.88908089156984882
sg28
Nsg22
S'1'
sg19
F1.5214312985772267
sg21
S'8'
sg16
F1.5029616188257933
sg26
g27
sg29
V1
sg18
S'3'
sa(dp280
g17
F7.9735433096648194
sg20
S'27'
p281
sg14
F3.4485186915844679e-05
sg15
F0.41830283958173053
sg28
Nsg22
S'0'
sg19
F0.38758903532288969
sg21
S'23'
p282
sg16
F1.5079668942489661
sg26
g27
sg29
V1
sg18
S'3'
sa(dp283
g17
F10.431455807643943
sg20
S'23'
p284
sg14
F3.5716744605451822e-05
sg15
F0.31450694355218589
sg28
Nsg22
S'0'
sg19
F0.38437083049211651
sg21
S'13'
p285
sg16
F1.5053382214391604
sg26
g27
sg29
V1
sg18
S'1'
sa(dp286
g17
F9.2728987655136734
sg20
S'40'
p287
sg14
F3.5306205973029137e-05
sg15
F0.51570988209355006
sg28
Nsg22
S'1'
sg19
F1.0392067591310479
sg21
S'27'
p288
sg16
F1.5077320666750893
sg26
g27
sg29
V1
sg18
S'2'
sa(dp289
g17
F9.061048595351167
sg20
S'33'
p290
sg14
F3.530626418069005e-05
sg15
F0.31199052508531566
sg28
Nsg22
S'1'
sg19
F0.32519100263016298
sg21
S'27'
p291
sg16
F1.5040195744368248
sg26
g27
sg29
V1
sg18
S'1'
sa(dp292
g17
F8.2605177700752392
sg20
S'31'
p293
sg14
F4.5980210416018963e-05
sg15
F0.79121877756100223
sg28
Nsg22
S'0'
sg19
F0.45332597108790651
sg21
S'22'
p294
sg16
F1.5116633754805662
sg26
g27
sg29
V1
sg18
S'3'
sa(dp295
g17
F8.1899767224676907
sg20
S'18'
p296
sg14
F3.4485128708183765e-05
sg15
F0.61469656677729601
sg28
Nsg22
S'1'
sg19
F0.67213886033277959
sg21
S'19'
p297
sg16
F1.5088799300137907
sg26
g27
sg29
V1
sg18
S'1'
sa(dp298
g17
F8.3977063259808347
sg20
S'2'
sg14
F3.9411650504916906e-05
sg15
F0.45125369723286679
sg28
Nsg22
S'0'
sg19
F0.34216550417477265
sg21
S'28'
p299
sg16
F1.5075403455994092
sg26
g27
sg29
V1
sg18
S'3'
sa(dp300
g17
F6.4759773875703104
sg20
S'35'
p301
sg14
F4.6390749048441648e-05
sg15
F0.3846756625507769
sg28
Nsg22
S'0'
sg19
F0.32334481476573274
sg21
S'30'
p302
sg16
F1.5100150667130947
sg26
g27
sg29
V1
sg18
S'2'
sa(dp303
g17
F11.056752318516374
sg20
S'15'
p304
sg14
F3.6127341445535421e-05
sg15
F0.97057808543853397
sg28
Nsg22
S'1'
sg19
F0.38458964705932885
sg21
S'1'
sg16
F1.515617263969034
sg26
g27
sg29
V1
sg18
S'1'
sa(dp305
g17
F8.903076158836484
sg20
S'21'
p306
sg14
F3.4485186915844679e-05
sg15
F0.24532403487746235
sg28
Nsg22
S'1'
sg19
F1.4104063091799617
sg21
S'19'
p307
sg16
F1.5147805881570093
sg26
g27
sg29
V1
sg18
S'1'
sa(dp308
g17
F11.100034895702265
sg20
S'31'
p309
sg14
F6.1170139815658331e-05
sg15
F0.9194030665256111
sg28
Nsg22
S'0'
sg19
F0.2788437616545707
sg21
S'13'
p310
sg16
F1.5127669008215889
sg26
g27
sg29
V1
sg18
S'3'
sa(dp311
g17
F9.9693948263884522
sg20
S'25'
p312
sg14
F6.034906255081296e-05
sg15
F0.39672914087142264
sg28
Nsg22
S'1'
sg19
F0.35481417016126215
sg21
S'2'
sg16
F1.5050849197432399
sg26
g27
sg29
V1
sg18
S'1'
sa(dp313
g17
F7.5431323203956708
sg20
S'13'
p314
sg14
F3.3664109650999308e-05
sg15
F0.17041745069930608
sg28
Nsg22
S'1'
sg19
F0.54526629525935277
sg21
S'16'
p315
sg16
F1.5005320568452589
sg26
g27
sg29
V1
sg18
S'3'
sa(dp316
g17
F6.5260367103037424
sg20
S'19'
p317
sg14
F3.530626418069005e-05
sg15
F0.89080607425108549
sg28
Nsg22
S'0'
sg19
F1.9262547057587653
sg21
S'28'
p318
sg16
F1.5035359610919841
sg26
g27
sg29
V1
sg18
S'2'
sa(dp319
g17
F7.3599352171295322
sg20
S'4'
sg14
F3.4485128708183765e-05
sg15
F0.46265539790514532
sg28
Nsg22
S'0'
sg19
F0.28452108730562031
sg21
S'27'
p320
sg16
F1.5152091894415207
sg26
g27
sg29
V1
sg18
S'2'
sa(dp321
g17
F9.3994309948175214
sg20
S'36'
p322
sg14
F3.3253571018576622e-05
sg15
F0.2882106881915133
sg28
Nsg22
S'0'
sg19
F0.33891363511793315
sg21
S'28'
p323
sg16
F1.5176949951564893
sg26
g27
sg29
V1
sg18
S'1'
sa(dp324
g17
F6.8140958112780936
sg20
S'19'
p325
sg14
F4.9264519475400448e-05
sg15
F0.22224676606701455
sg28
Nsg22
S'0'
sg19
F0.39902250975137576
sg21
S'5'
sg16
F1.5205014307284728
sg26
g27
sg29
V1
sg18
S'3'
sa(dp326
g17
F8.3077279612771235
sg20
S'20'
p327
sg14
F3.3253512810915709e-05
sg15
F0.76589171308232051
sg28
Nsg22
S'0'
sg19
F0.65030482428846881
sg21
S'10'
p328
sg16
F1.5048767770640552
sg26
g27
sg29
V1
sg18
S'3'
sa(dp329
g17
F7.0089887225185521
sg20
S'12'
p330
sg14
F7.5128395110368729e-05
sg15
F0.95106824401494683
sg28
Nsg22
S'1'
sg19
F2.3415373815223575
sg21
S'22'
p331
sg16
F1.5151586933061481
sg26
g27
sg29
V1
sg18
S'1'
sa(dp332
g17
F6.7873061749269255
sg20
S'18'
p333
sg14
F4.2285362724214792e-05
sg15
F0.31566724675814234
sg28
Nsg22
S'1'
sg19
F0.76586214965209365
sg21
S'11'
p334
sg16
F1.5137012845952995
sg26
g27
sg29
V1
sg18
S'2'
sa(dp335
g17
F9.7068391471984796
sg20
S'26'
p336
sg14
F6.1991158872842789e-05
sg15
F0.31468261755162968
sg28
Nsg22
S'1'
sg19
F0.47483157692477107
sg21
S'11'
p337
sg16
F1.5263606244698167
sg26
g27
sg29
V1
sg18
S'1'
sa(dp338
g17
F8.2185341341537423
sg20
S'12'
p339
sg14
F4.8032903578132391e-05
sg15
F0.4269248809860513
sg28
Nsg22
S'1'
sg19
F0.32561549858655781
sg21
S'27'
p340
sg16
F1.5040376380784437
sg26
g27
sg29
V1
sg18
S'3'
sa(dp341
g17
F8.7049592951661907
sg20
S'40'
p342
sg14
F6.0759542975574732e-05
sg15
F0.95359874297752234
sg28
Nsg22
S'1'
sg19
F0.35472959937760606
sg21
S'24'
p343
sg16
F1.5013371212407947
sg26
g27
sg29
V1
sg18
S'3'
sa(dp344
g17
F7.6302960386965424
sg20
S'18'
p345
sg14
F3.5716802813112736e-05
sg15
F0.19764012496147604
sg28
Nsg22
S'1'
sg19
F0.25252829631790519
sg21
S'30'
p346
sg16
F1.5451016696752049
sg26
g27
sg29
V1
sg18
S'1'
sa(dp347
g17
F9.7660423757042736
sg20
S'21'
p348
sg14
F3.776943776756525e-05
sg15
F0.56742215915196614
sg28
Nsg22
S'1'
sg19
F0.50245090998942032
sg21
S'18'
p349
sg16
F1.5382387112476863
sg26
g27
sg29
V1
sg18
S'1'
sa(dp350
g17
F10.160747671267018
sg20
S'36'
p351
sg14
F3.4074648283421993e-05
sg15
F0.41578619498403202
sg28
Nsg22
S'0'
sg19
F0.23030465998454019
sg21
S'14'
p352
sg16
F1.5102318306453526
sg26
g27
sg29
V1
sg18
S'1'
sa(dp353
g17
F7.3530057516763918
sg20
S'12'
p354
sg14
F3.4895725548267365e-05
sg15
F0.8472509305480187
sg28
Nsg22
S'1'
sg19
F0.10486692417180166
sg21
S'17'
p355
sg16
F1.523373962903861
sg26
g27
sg29
V1
sg18
S'2'
sasS'loops'
p356
(lp357
sS'savePickle'
p358
I00
sb.